ARM GAS  C:\Users\11800025\AppData\Local\Temp\ccqiYPD2.s 			page 1


   1              		.syntax unified
   2              		.cpu cortex-m0
   3              		.fpu softvfp
   4              		.eabi_attribute 20, 1
   5              		.eabi_attribute 21, 1
   6              		.eabi_attribute 23, 3
   7              		.eabi_attribute 24, 1
   8              		.eabi_attribute 25, 1
   9              		.eabi_attribute 26, 1
  10              		.eabi_attribute 30, 1
  11              		.eabi_attribute 34, 0
  12              		.eabi_attribute 18, 4
  13              		.thumb
  14              		.syntax unified
  15              		.file	"main.c"
  16              		.text
  17              	.Ltext0:
  18              		.cfi_sections	.debug_frame
  19              		.section	.text.main,"ax",%progbits
  20              		.align	2
  21              		.global	main
  22              		.code	16
  23              		.thumb_func
  24              		.type	main, %function
  25              	main:
  26              	.LFB32:
  27              		.file 1 "main.c"
   1:main.c        **** /******************************************************************************
   2:main.c        **** * File Name: main.c
   3:main.c        **** *
   4:main.c        **** * Version 2.10
   5:main.c        **** *
   6:main.c        **** * Description: 
   7:main.c        **** *  This code example demonstrates the usage of the Software Transmit UART Component.
   8:main.c        **** *
   9:main.c        **** * Related Document: 
  10:main.c        **** *  CE195379_Software_Transmit_UART_PSoC3_4_5LP.pdf
  11:main.c        **** *
  12:main.c        **** * Hardware Dependency: 
  13:main.c        **** *  See CE195379_Software_Transmit_UART_PSoC3_4_5LP.pdf
  14:main.c        **** *
  15:main.c        **** *******************************************************************************
  16:main.c        **** * Copyright (2018), Cypress Semiconductor Corporation. All rights reserved.
  17:main.c        **** *******************************************************************************
  18:main.c        **** * This software, including source code, documentation and related materials
  19:main.c        **** * (“Software”), is owned by Cypress Semiconductor Corporation or one of its
  20:main.c        **** * subsidiaries (“Cypress”) and is protected by and subject to worldwide patent
  21:main.c        **** * protection (United States and foreign), United States copyright laws and
  22:main.c        **** * international treaty provisions. Therefore, you may use this Software only
  23:main.c        **** * as provided in the license agreement accompanying the software package from
  24:main.c        **** * which you obtained this Software (“EULA”).
  25:main.c        **** *
  26:main.c        **** * If no EULA applies, Cypress hereby grants you a personal, nonexclusive,
  27:main.c        **** * non-transferable license to copy, modify, and compile the Software source
  28:main.c        **** * code solely for use in connection with Cypress’s integrated circuit products.
  29:main.c        **** * Any reproduction, modification, translation, compilation, or representation
  30:main.c        **** * of this Software except as specified above is prohibited without the express
ARM GAS  C:\Users\11800025\AppData\Local\Temp\ccqiYPD2.s 			page 2


  31:main.c        **** * written permission of Cypress.
  32:main.c        **** *
  33:main.c        **** * Disclaimer: THIS SOFTWARE IS PROVIDED AS-IS, WITH NO WARRANTY OF ANY KIND, 
  34:main.c        **** * EXPRESS OR IMPLIED, INCLUDING, BUT NOT LIMITED TO, NONINFRINGEMENT, IMPLIED 
  35:main.c        **** * WARRANTIES OF MERCHANTABILITY AND FITNESS FOR A PARTICULAR PURPOSE. Cypress 
  36:main.c        **** * reserves the right to make changes to the Software without notice. Cypress 
  37:main.c        **** * does not assume any liability arising out of the application or use of the 
  38:main.c        **** * Software or any product or circuit described in the Software. Cypress does 
  39:main.c        **** * not authorize its products for use in any products where a malfunction or 
  40:main.c        **** * failure of the Cypress product may reasonably be expected to result in 
  41:main.c        **** * significant property damage, injury or death (“High Risk Product”). By 
  42:main.c        **** * including Cypress’s product in a High Risk Product, the manufacturer of such 
  43:main.c        **** * system or application assumes all risk of such use and in doing so agrees to 
  44:main.c        **** * indemnify Cypress against all liability. 
  45:main.c        **** *******************************************************************************/
  46:main.c        **** 
  47:main.c        **** #include <project.h>
  48:main.c        **** #include <stdlib.h>
  49:main.c        **** 
  50:main.c        **** #define DATAARR_LEN         (13u)
  51:main.c        **** 
  52:main.c        **** #define SEND_INTERVAL       (2000u)
  53:main.c        **** 
  54:main.c        **** char byte[18];
  55:main.c        **** uint8 count = 0;
  56:main.c        ****  
  57:main.c        **** 
  58:main.c        **** int main()
  59:main.c        **** {
  28              		.loc 1 59 0
  29              		.cfi_startproc
  30              		@ Volatile: function does not return.
  31              		@ args = 0, pretend = 0, frame = 0
  32              		@ frame_needed = 0, uses_anonymous_args = 0
  33 0000 70B5     		push	{r4, r5, r6, lr}
  34              		.cfi_def_cfa_offset 16
  35              		.cfi_offset 4, -16
  36              		.cfi_offset 5, -12
  37              		.cfi_offset 6, -8
  38              		.cfi_offset 14, -4
  60:main.c        ****     CyGlobalIntEnable;
  39              		.loc 1 60 0
  40              		.syntax divided
  41              	@ 60 "main.c" 1
  42 0002 62B6     		CPSIE   i
  43              	@ 0 "" 2
  61:main.c        ****     UART_Putty_Start();
  44              		.loc 1 61 0
  45              		.thumb
  46              		.syntax unified
  47 0004 FFF7FEFF 		bl	UART_Putty_Start
  48              	.LVL0:
  62:main.c        ****     UART_ESP_Start();
  49              		.loc 1 62 0
  50 0008 FFF7FEFF 		bl	UART_ESP_Start
  51              	.LVL1:
  52              	.L3:
ARM GAS  C:\Users\11800025\AppData\Local\Temp\ccqiYPD2.s 			page 3


  63:main.c        ****    
  64:main.c        ****     for(;;)
  65:main.c        ****     {
  66:main.c        ****         
  67:main.c        ****     byte[count] = UART_ESP_UartGetChar();
  53              		.loc 1 67 0
  54 000c 124C     		ldr	r4, .L5
  55 000e 2578     		ldrb	r5, [r4]
  56 0010 FFF7FEFF 		bl	UART_ESP_UartGetChar
  57              	.LVL2:
  58 0014 114A     		ldr	r2, .L5+4
  59 0016 5055     		strb	r0, [r2, r5]
  68:main.c        ****     
  69:main.c        ****     if(byte[count])
  60              		.loc 1 69 0
  61 0018 2378     		ldrb	r3, [r4]
  62 001a D25C     		ldrb	r2, [r2, r3]
  63 001c 002A     		cmp	r2, #0
  64 001e 02D0     		beq	.L2
  70:main.c        ****     {
  71:main.c        ****     count++;
  65              		.loc 1 71 0
  66 0020 0133     		adds	r3, r3, #1
  67 0022 0D4A     		ldr	r2, .L5
  68 0024 1370     		strb	r3, [r2]
  69              	.L2:
  72:main.c        ****     }
  73:main.c        ****    
  74:main.c        ****     if(count == 18)
  70              		.loc 1 74 0
  71 0026 0C4B     		ldr	r3, .L5
  72 0028 1B78     		ldrb	r3, [r3]
  73 002a 122B     		cmp	r3, #18
  74 002c EED1     		bne	.L3
  75:main.c        ****     {
  76:main.c        ****         count = 0;
  75              		.loc 1 76 0
  76 002e 0022     		movs	r2, #0
  77 0030 094B     		ldr	r3, .L5
  78 0032 1A70     		strb	r2, [r3]
  77:main.c        ****         UART_Putty_UartPutString(byte);
  79              		.loc 1 77 0
  80 0034 094C     		ldr	r4, .L5+4
  81 0036 2000     		movs	r0, r4
  82 0038 FFF7FEFF 		bl	UART_Putty_UartPutString
  83              	.LVL3:
  78:main.c        ****         UART_Putty_UartPutCRLF(0); 
  84              		.loc 1 78 0
  85 003c 0020     		movs	r0, #0
  86 003e FFF7FEFF 		bl	UART_Putty_UartPutCRLF
  87              	.LVL4:
  79:main.c        ****         //UART_ESP_UartPutString("String recieved , hello from psoc 4!");
  80:main.c        ****         memset(byte, ' ' , sizeof(byte));
  88              		.loc 1 80 0
  89 0042 1222     		movs	r2, #18
  90 0044 2021     		movs	r1, #32
  91 0046 2000     		movs	r0, r4
ARM GAS  C:\Users\11800025\AppData\Local\Temp\ccqiYPD2.s 			page 4


  92 0048 FFF7FEFF 		bl	memset
  93              	.LVL5:
  81:main.c        ****         CyDelay(1000);
  94              		.loc 1 81 0
  95 004c FA20     		movs	r0, #250
  96 004e 8000     		lsls	r0, r0, #2
  97 0050 FFF7FEFF 		bl	CyDelay
  98              	.LVL6:
  99 0054 DAE7     		b	.L3
 100              	.L6:
 101 0056 C046     		.align	2
 102              	.L5:
 103 0058 00000000 		.word	.LANCHOR0
 104 005c 00000000 		.word	byte
 105              		.cfi_endproc
 106              	.LFE32:
 107              		.size	main, .-main
 108              		.global	count
 109              		.comm	byte,18,4
 110              		.bss
 111              		.set	.LANCHOR0,. + 0
 112              		.type	count, %object
 113              		.size	count, 1
 114              	count:
 115 0000 00       		.space	1
 116              		.text
 117              	.Letext0:
 118              		.file 2 "Generated_Source\\PSoC4/UART_Putty.h"
 119              		.file 3 "Generated_Source\\PSoC4/UART_ESP.h"
 120              		.file 4 "Generated_Source\\PSoC4/UART_ESP_SPI_UART.h"
 121              		.file 5 "Generated_Source\\PSoC4/UART_Putty_SPI_UART.h"
 122              		.file 6 "c:\\program files (x86)\\cypress\\psoc creator\\4.2\\psoc creator\\import\\gnu\\arm\\5.4.
 123              		.file 7 "Generated_Source\\PSoC4/CyLib.h"
 124              		.file 8 "Generated_Source\\PSoC4/cytypes.h"